target datalayout = "e-m:e-p270:32:32-p271:32:32-p272:64:64-i64:64-i128:128-f80:128-n8:16:32:64-S128"
target triple = "x86_64-pc-linux-gnu"

%struct.SResource = type { ptr, i8, i8, i32, i32, i32, i32, i32, ptr, %struct.UString }
%struct.UString = type { ptr, i32, i32 }
%class.ContainerResource = type { %struct.SResource, i32, ptr }

; Function Attrs: mustprogress nounwind uwtable
define internal noundef zeroext i8 @_ZL11calcPaddingj(i32 noundef %0) #4 {
  %2 = alloca i32, align 4
  store i32 %0, ptr %2, align 4, !tbaa !23
  %3 = load i32, ptr %2, align 4, !tbaa !23
  %4 = zext i32 %3 to i64
  %5 = urem i64 %4, 4
  %6 = icmp ne i64 %5, 0
  br i1 %6, label %7, label %12

7:                                                ; preds = %1
  %8 = load i32, ptr %2, align 4, !tbaa !23
  %9 = zext i32 %8 to i64
  %10 = urem i64 %9, 4
  %11 = sub i64 4, %10
  br label %13

12:                                               ; preds = %1
  br label %13

13:                                               ; preds = %12, %7
  %14 = phi i64 [ %11, %7 ], [ 0, %12 ]
  %15 = trunc i64 %14 to i8
  ret i8 %15
}

; Function Attrs: mustprogress uwtable
define dso_local void @_ZN9SResource8preWriteEPj(ptr noundef nonnull align 8 dereferenceable(56) %0, ptr noundef %1) #5 align 2 {
  %3 = alloca ptr, align 8
  %4 = alloca ptr, align 8
  store ptr %0, ptr %3, align 8, !tbaa !24
  store ptr %1, ptr %4, align 8, !tbaa !96
  %5 = load ptr, ptr %3, align 8
  %6 = getelementptr inbounds nuw %struct.SResource, ptr %5, i32 0, i32 3
  %7 = load i32, ptr %6, align 4, !tbaa !33
  %8 = icmp ne i32 %7, -1
  br i1 %8, label %9, label %10

9:                                                ; preds = %2
  br label %22

10:                                               ; preds = %2
  %11 = load ptr, ptr %4, align 8, !tbaa !96
  %12 = load ptr, ptr %5, align 8, !tbaa !26
  %13 = getelementptr inbounds ptr, ptr %12, i64 4
  %14 = load ptr, ptr %13, align 8
  call void %14(ptr noundef nonnull align 8 dereferenceable(56) %5, ptr noundef %11)
  %15 = load ptr, ptr %4, align 8, !tbaa !96
  %16 = load i32, ptr %15, align 4, !tbaa !23
  %17 = call noundef zeroext i8 @_ZL11calcPaddingj(i32 noundef %16)
  %18 = zext i8 %17 to i32
  %19 = load ptr, ptr %4, align 8, !tbaa !96
  %20 = load i32, ptr %19, align 4, !tbaa !23
  %21 = add i32 %20, %18
  store i32 %21, ptr %19, align 4, !tbaa !23
  br label %22

22:                                               ; preds = %10, %9
  ret void
}

; Function Attrs: mustprogress uwtable
define dso_local void @_ZN17ContainerResource14preWriteAllResEPj(ptr noundef nonnull align 8 dereferenceable(72) %0, ptr noundef %1) #5 align 2 {
  %3 = alloca ptr, align 8
  %4 = alloca ptr, align 8
  %5 = alloca ptr, align 8
  store ptr %0, ptr %3, align 8, !tbaa !53
  store ptr %1, ptr %4, align 8, !tbaa !96
  %6 = load ptr, ptr %3, align 8
  call void @llvm.lifetime.start.p0(i64 8, ptr %5) #3
  %7 = getelementptr inbounds nuw %class.ContainerResource, ptr %6, i32 0, i32 2
  %8 = load ptr, ptr %7, align 8, !tbaa !55
  store ptr %8, ptr %5, align 8, !tbaa !24
  br label %9

9:                                                ; preds = %16, %2
  %10 = load ptr, ptr %5, align 8, !tbaa !24
  %11 = icmp ne ptr %10, null
  br i1 %11, label %13, label %12

12:                                               ; preds = %9
  call void @llvm.lifetime.end.p0(i64 8, ptr %5) #3
  br label %20

13:                                               ; preds = %9
  %14 = load ptr, ptr %5, align 8, !tbaa !24
  %15 = load ptr, ptr %4, align 8, !tbaa !96
  call void @_ZN9SResource8preWriteEPj(ptr noundef nonnull align 8 dereferenceable(56) %14, ptr noundef %15)
  br label %16

16:                                               ; preds = %13
  %17 = load ptr, ptr %5, align 8, !tbaa !24
  %18 = getelementptr inbounds nuw %struct.SResource, ptr %17, i32 0, i32 8
  %19 = load ptr, ptr %18, align 8, !tbaa !38
  store ptr %19, ptr %5, align 8, !tbaa !24
  br label %9, !llvm.loop !131

20:                                               ; preds = %12
  ret void
}

; Function Attrs: mustprogress uwtable
define dso_local void @_ZN13ArrayResource14handlePreWriteEPj(ptr noundef nonnull align 8 dereferenceable(80) %0, ptr noundef %1) unnamed_addr #5 align 2 {
  %3 = alloca ptr, align 8
  %4 = alloca ptr, align 8
  store ptr %0, ptr %3, align 8, !tbaa !66
  store ptr %1, ptr %4, align 8, !tbaa !96
  %5 = load ptr, ptr %3, align 8
  %6 = load ptr, ptr %4, align 8, !tbaa !96
  call void @_ZN17ContainerResource14preWriteAllResEPj(ptr noundef nonnull align 8 dereferenceable(72) %5, ptr noundef %6)
  %7 = load ptr, ptr %4, align 8, !tbaa !96
  %8 = load i32, ptr %7, align 4, !tbaa !23
  %9 = lshr i32 %8, 2
  %10 = or i32 -2147483648, %9
  %11 = getelementptr inbounds nuw %struct.SResource, ptr %5, i32 0, i32 3
  store i32 %10, ptr %11, align 4, !tbaa !33
  %12 = getelementptr inbounds nuw %class.ContainerResource, ptr %5, i32 0, i32 1
  %13 = load i32, ptr %12, align 8, !tbaa !61
  %14 = add i32 1, %13
  %15 = mul i32 %14, 4
  %16 = load ptr, ptr %4, align 8, !tbaa !96
  %17 = load i32, ptr %16, align 4, !tbaa !23
  %18 = add i32 %17, %15
  store i32 %18, ptr %16, align 4, !tbaa !23
  ret void
}