; Function Attrs: mustprogress uwtable
define dso_local void @_ZN13ArrayResource14handlePreWriteEPj(ptr noundef nonnull align 8 captures(none) dereferenceable(80) %0, ptr noundef %1) unnamed_addr #7 align 2 {
  %3 = getelementptr inbounds nuw i8, ptr %0, i64 64
  %.05.i = load ptr, ptr %3, align 8, !tbaa !74
  %.not6.i = icmp eq ptr %.05.i, null
  br i1 %.not6.i, label %_ZN17ContainerResource14preWriteAllResEPj.exit, label %.lr.ph.i

.lr.ph.i:                                         ; preds = %2, %_ZN9SResource8preWriteEPj.exit.i
  %.07.i = phi ptr [ %.0.i, %_ZN9SResource8preWriteEPj.exit.i ], [ %.05.i, %2 ]
  %4 = getelementptr inbounds nuw i8, ptr %.07.i, i64 12
  %5 = load i32, ptr %4, align 4, !tbaa !20
  %.not.i.i = icmp eq i32 %5, -1
  br i1 %.not.i.i, label %6, label %_ZN9SResource8preWriteEPj.exit.i

6:                                                ; preds = %.lr.ph.i
  %7 = load ptr, ptr %.07.i, align 8, !tbaa !9
  %8 = getelementptr inbounds nuw i8, ptr %7, i64 32
  %9 = load ptr, ptr %8, align 8
  tail call void %9(ptr noundef nonnull align 8 dereferenceable(56) %.07.i, ptr noundef %1)
  %10 = load i32, ptr %1, align 4, !tbaa !7
  %11 = and i32 %10, 3
  %.not.i.i.i = icmp eq i32 %11, 0
  %12 = sub nuw nsw i32 4, %11
  %13 = select i1 %.not.i.i.i, i32 0, i32 %12
  %14 = add i32 %13, %10
  store i32 %14, ptr %1, align 4, !tbaa !7
  br label %_ZN9SResource8preWriteEPj.exit.i

_ZN9SResource8preWriteEPj.exit.i:                 ; preds = %6, %.lr.ph.i
  %15 = getelementptr inbounds nuw i8, ptr %.07.i, i64 32
  %.0.i = load ptr, ptr %15, align 8, !tbaa !74
  %.not.i = icmp eq ptr %.0.i, null
  br i1 %.not.i, label %_ZN17ContainerResource14preWriteAllResEPj.exit, label %.lr.ph.i, !llvm.loop !93

_ZN17ContainerResource14preWriteAllResEPj.exit:   ; preds = %_ZN9SResource8preWriteEPj.exit.i, %2
  %16 = load i32, ptr %1, align 4, !tbaa !7
  %17 = lshr i32 %16, 2
  %18 = or disjoint i32 %17, -2147483648
  %19 = getelementptr inbounds nuw i8, ptr %0, i64 12
  store i32 %18, ptr %19, align 4, !tbaa !20
  %20 = getelementptr inbounds nuw i8, ptr %0, i64 56
  %21 = load i32, ptr %20, align 8, !tbaa !42
  %22 = shl i32 %21, 2
  %23 = add i32 %22, 4
  %24 = load i32, ptr %1, align 4, !tbaa !7
  %25 = add i32 %23, %24
  store i32 %25, ptr %1, align 4, !tbaa !7
  ret void
}